target datalayout = "e-m:e-p270:32:32-p271:32:32-p272:64:64-i64:64-i128:128-f80:128-n8:16:32:64-S128"
target triple = "x86_64-pc-linux-gnu"

%struct._wmem_allocator_t = type { ptr, ptr, ptr, ptr, ptr, ptr, ptr, ptr, i32, i8 }
%struct.wmem_block_fast_allocator_t = type { ptr, ptr }

; Function Attrs: null_pointer_is_valid sspstrong uwtable
define hidden void @wmem_block_fast_allocator_init(ptr noundef %0) #0 {
  %2 = alloca ptr, align 8
  %3 = alloca ptr, align 8
  store ptr %0, ptr %2, align 8
  call void @llvm.lifetime.start.p0(i64 8, ptr %3) #10
  %4 = call noalias ptr @wmem_alloc(ptr noundef null, i64 noundef 16) #11
  store ptr %4, ptr %3, align 8
  %5 = load ptr, ptr %2, align 8
  %6 = getelementptr inbounds nuw %struct._wmem_allocator_t, ptr %5, i32 0, i32 0
  store ptr @wmem_block_fast_alloc, ptr %6, align 8
  %7 = load ptr, ptr %2, align 8
  %8 = getelementptr inbounds nuw %struct._wmem_allocator_t, ptr %7, i32 0, i32 2
  store ptr @wmem_block_fast_realloc, ptr %8, align 8
  %9 = load ptr, ptr %2, align 8
  %10 = getelementptr inbounds nuw %struct._wmem_allocator_t, ptr %9, i32 0, i32 1
  store ptr @wmem_block_fast_free, ptr %10, align 8
  %11 = load ptr, ptr %2, align 8
  %12 = getelementptr inbounds nuw %struct._wmem_allocator_t, ptr %11, i32 0, i32 3
  store ptr @wmem_block_fast_free_all, ptr %12, align 8
  %13 = load ptr, ptr %2, align 8
  %14 = getelementptr inbounds nuw %struct._wmem_allocator_t, ptr %13, i32 0, i32 4
  store ptr @wmem_block_fast_gc, ptr %14, align 8
  %15 = load ptr, ptr %2, align 8
  %16 = getelementptr inbounds nuw %struct._wmem_allocator_t, ptr %15, i32 0, i32 5
  store ptr @wmem_block_fast_allocator_cleanup, ptr %16, align 8
  %17 = load ptr, ptr %3, align 8
  %18 = load ptr, ptr %2, align 8
  %19 = getelementptr inbounds nuw %struct._wmem_allocator_t, ptr %18, i32 0, i32 7
  store ptr %17, ptr %19, align 8
  %20 = load ptr, ptr %3, align 8
  %21 = getelementptr inbounds nuw %struct.wmem_block_fast_allocator_t, ptr %20, i32 0, i32 0
  store ptr null, ptr %21, align 8
  %22 = load ptr, ptr %3, align 8
  %23 = getelementptr inbounds nuw %struct.wmem_block_fast_allocator_t, ptr %22, i32 0, i32 1
  store ptr null, ptr %23, align 8
  call void @llvm.lifetime.end.p0(i64 8, ptr %3) #10
  ret void
}